; Function Attrs: mustprogress nounwind uwtable
define void @_ZN5Ipopt16MonotoneMuUpdateD2Ev(ptr noundef nonnull align 8 dereferenceable(130) %0) unnamed_addr #4 align 2 {
  store ptr getelementptr inbounds ({ [6 x ptr] }, ptr @_ZTVN5Ipopt16MonotoneMuUpdateE, i64 0, i32 0, i64 2), ptr %0, align 8
  %2 = getelementptr inbounds i8, ptr %0, i64 120
  %3 = load ptr, ptr %2, align 8
  %.not.i.i = icmp eq ptr %3, null
  br i1 %.not.i.i, label %_ZN5Ipopt8SmartPtrINS_10LineSearchEED2Ev.exit, label %4

4:                                                ; preds = %1
  %5 = getelementptr inbounds i8, ptr %3, i64 8
  %6 = load i32, ptr %5, align 8
  %7 = add nsw i32 %6, -1
  store i32 %7, ptr %5, align 8
  %8 = load ptr, ptr %2, align 8
  %9 = getelementptr inbounds i8, ptr %8, i64 8
  %10 = load i32, ptr %9, align 8
  %11 = icmp eq i32 %10, 0
  br i1 %11, label %12, label %_ZN5Ipopt8SmartPtrINS_10LineSearchEED2Ev.exit

12:                                               ; preds = %4
  %13 = load ptr, ptr %8, align 8
  %14 = getelementptr inbounds i8, ptr %13, i64 8
  %15 = load ptr, ptr %14, align 8
  tail call void %15(ptr noundef nonnull align 8 dereferenceable(49) %8) #14
  br label %_ZN5Ipopt8SmartPtrINS_10LineSearchEED2Ev.exit

_ZN5Ipopt8SmartPtrINS_10LineSearchEED2Ev.exit:    ; preds = %1, %4, %12
  tail call void @_ZN5Ipopt23AlgorithmStrategyObjectD2Ev(ptr noundef nonnull align 8 dereferenceable(49) %0) #14
  ret void
}